; Function Attrs: mustprogress uwtable
define void @_ZN32pxrInternal_v0_24__pxrReserved__26HdsiSceneGlobalsSceneIndexC2ERKNS_8TfRefPtrINS_16HdSceneIndexBaseEEE(ptr noundef nonnull align 8 dereferenceable(176) %0, ptr noundef nonnull align 8 dereferenceable(8) %1) unnamed_addr #0 align 2 {
  tail call void @_ZN32pxrInternal_v0_24__pxrReserved__36HdSingleInputFilteringSceneIndexBaseC2ERKNS_8TfRefPtrINS_16HdSceneIndexBaseEEE(ptr noundef nonnull align 8 dereferenceable(152) %0, ptr noundef nonnull align 8 dereferenceable(8) %1)
  store ptr getelementptr inbounds inrange(-16, 80) (i8, ptr @_ZTVN32pxrInternal_v0_24__pxrReserved__26HdsiSceneGlobalsSceneIndexE, i64 16), ptr %0, align 8
  %3 = getelementptr inbounds nuw i8, ptr %0, i64 152
  %4 = getelementptr inbounds nuw i8, ptr %0, i64 168
  tail call void @llvm.memset.p0.i64(ptr noundef nonnull align 8 dereferenceable(16) %3, i8 0, i64 16, i1 false)
  store double 0x7FF8000000000000, ptr %4, align 8
  ret void
}